target datalayout = "e-m:e-p270:32:32-p271:32:32-p272:64:64-i64:64-i128:128-f80:128-n8:16:32:64-S128"
target triple = "x86_64-pc-linux-gnu"

%struct.PlannerInfo = type { i32, ptr, ptr, i32, ptr, ptr, ptr, ptr, i32, ptr, ptr, ptr, ptr, ptr, ptr, ptr, ptr, i32, ptr, ptr, ptr, ptr, ptr, i8, ptr, ptr, ptr, ptr, ptr, i32, ptr, ptr, ptr, ptr, ptr, ptr, ptr, i32, ptr, ptr, ptr, i32, ptr, ptr, ptr, ptr, ptr, ptr, [8 x ptr], [8 x ptr], ptr, ptr, ptr, ptr, ptr, ptr, ptr, double, double, double, i32, i8, i8, i8, i8, i8, i8, i8, i32, ptr, ptr, i32, i8, i8, i32, ptr, ptr, ptr, ptr, ptr, ptr, i8, ptr }
%struct.PlannerGlobal = type { i32, ptr, ptr, ptr, ptr, ptr, ptr, ptr, ptr, ptr, ptr, ptr, ptr, ptr, ptr, ptr, ptr, i32, i32, i32, i8, i8, i8, i8, i8, ptr }
%struct.fix_scan_expr_context = type { ptr, i32, double }

; Function Attrs: nounwind uwtable
define internal ptr @fix_scan_expr(ptr noundef %0, ptr noundef %1, i32 noundef %2, double noundef %3) #0 {
  %5 = alloca ptr, align 8
  %6 = alloca ptr, align 8
  %7 = alloca ptr, align 8
  %8 = alloca i32, align 4
  %9 = alloca double, align 8
  %10 = alloca %struct.fix_scan_expr_context, align 8
  %11 = alloca i32, align 4
  store ptr %0, ptr %6, align 8
  store ptr %1, ptr %7, align 8
  store i32 %2, ptr %8, align 4
  store double %3, ptr %9, align 8
  call void @llvm.lifetime.start.p0(i64 24, ptr %10) #8
  %12 = load ptr, ptr %6, align 8
  %13 = getelementptr inbounds nuw %struct.fix_scan_expr_context, ptr %10, i32 0, i32 0
  store ptr %12, ptr %13, align 8
  %14 = load i32, ptr %8, align 4
  %15 = getelementptr inbounds nuw %struct.fix_scan_expr_context, ptr %10, i32 0, i32 1
  store i32 %14, ptr %15, align 8
  %16 = load double, ptr %9, align 8
  %17 = getelementptr inbounds nuw %struct.fix_scan_expr_context, ptr %10, i32 0, i32 2
  store double %16, ptr %17, align 8
  %18 = load i32, ptr %8, align 4
  %19 = icmp ne i32 %18, 0
  br i1 %19, label %42, label %20

20:                                               ; preds = %4
  %21 = load ptr, ptr %6, align 8
  %22 = getelementptr inbounds nuw %struct.PlannerInfo, ptr %21, i32 0, i32 20
  %23 = load ptr, ptr %22, align 8
  %24 = icmp ne ptr %23, null
  br i1 %24, label %42, label %25

25:                                               ; preds = %20
  %26 = load ptr, ptr %6, align 8
  %27 = getelementptr inbounds nuw %struct.PlannerInfo, ptr %26, i32 0, i32 2
  %28 = load ptr, ptr %27, align 8
  %29 = getelementptr inbounds nuw %struct.PlannerGlobal, ptr %28, i32 0, i32 17
  %30 = load i32, ptr %29, align 8
  %31 = icmp ne i32 %30, 0
  br i1 %31, label %42, label %32

32:                                               ; preds = %25
  %33 = load ptr, ptr %6, align 8
  %34 = getelementptr inbounds nuw %struct.PlannerInfo, ptr %33, i32 0, i32 55
  %35 = load ptr, ptr %34, align 8
  %36 = icmp ne ptr %35, null
  br i1 %36, label %42, label %37

37:                                               ; preds = %32
  %38 = load ptr, ptr %6, align 8
  %39 = getelementptr inbounds nuw %struct.PlannerInfo, ptr %38, i32 0, i32 65
  %40 = load i8, ptr %39, align 8, !range !7, !noundef !8
  %41 = trunc i8 %40 to i1
  br i1 %41, label %42, label %45

42:                                               ; preds = %37, %32, %25, %20, %4
  %43 = load ptr, ptr %7, align 8
  %44 = call ptr @fix_scan_expr_mutator(ptr noundef %43, ptr noundef %10)
  store ptr %44, ptr %5, align 8
  store i32 1, ptr %11, align 4
  br label %49

45:                                               ; preds = %37
  %46 = load ptr, ptr %7, align 8
  %47 = call zeroext i1 @fix_scan_expr_walker(ptr noundef %46, ptr noundef %10)
  %48 = load ptr, ptr %7, align 8
  store ptr %48, ptr %5, align 8
  store i32 1, ptr %11, align 4
  br label %49

49:                                               ; preds = %45, %42
  call void @llvm.lifetime.end.p0(i64 24, ptr %10) #8
  %50 = load ptr, ptr %5, align 8
  ret ptr %50
}