; Function Attrs: nounwind uwtable
define internal fastcc ptr @fix_scan_expr(ptr noundef %0, ptr noundef %1, i32 noundef %2, double noundef %3) unnamed_addr #0 {
  %5 = alloca %struct.fix_scan_expr_context, align 8
  call void @llvm.lifetime.start.p0(i64 24, ptr nonnull %5) #8
  store ptr %0, ptr %5, align 8
  %6 = getelementptr inbounds nuw i8, ptr %5, i64 8
  store i32 %2, ptr %6, align 8
  %7 = getelementptr inbounds nuw i8, ptr %5, i64 16
  store double %3, ptr %7, align 8
  %.not = icmp eq i32 %2, 0
  br i1 %.not, label %8, label %23

8:                                                ; preds = %4
  %9 = getelementptr inbounds nuw i8, ptr %0, i64 160
  %10 = load ptr, ptr %9, align 8
  %.not11 = icmp eq ptr %10, null
  br i1 %.not11, label %11, label %23

11:                                               ; preds = %8
  %12 = getelementptr inbounds nuw i8, ptr %0, i64 16
  %13 = load ptr, ptr %12, align 8
  %14 = getelementptr inbounds nuw i8, ptr %13, i64 136
  %15 = load i32, ptr %14, align 8
  %.not12 = icmp eq i32 %15, 0
  br i1 %.not12, label %16, label %23

16:                                               ; preds = %11
  %17 = getelementptr inbounds nuw i8, ptr %0, i64 552
  %18 = load ptr, ptr %17, align 8
  %.not13 = icmp eq ptr %18, null
  br i1 %.not13, label %19, label %23

19:                                               ; preds = %16
  %20 = getelementptr inbounds nuw i8, ptr %0, i64 600
  %21 = load i8, ptr %20, align 8, !range !4, !noundef !5
  %22 = trunc nuw i8 %21 to i1
  br i1 %22, label %23, label %25

23:                                               ; preds = %19, %16, %11, %8, %4
  %24 = call ptr @fix_scan_expr_mutator(ptr noundef %1, ptr noundef nonnull %5)
  br label %27

25:                                               ; preds = %19
  %26 = call zeroext i1 @fix_scan_expr_walker(ptr noundef %1, ptr noundef nonnull %5)
  br label %27

27:                                               ; preds = %25, %23
  %.0 = phi ptr [ %24, %23 ], [ %1, %25 ]
  call void @llvm.lifetime.end.p0(i64 24, ptr nonnull %5) #8
  ret ptr %.0
}